target datalayout = "e-m:e-p270:32:32-p271:32:32-p272:64:64-i64:64-i128:128-f80:128-n8:16:32:64-S128"
target triple = "x86_64-pc-linux-gnu"

%"class.icu_77::UObject" = type { ptr }
%"class.icu_77::UnicodeString" = type { %"class.icu_77::Replaceable", %"union.icu_77::UnicodeString::StackBufferOrFields" }
%"class.icu_77::Replaceable" = type { %"class.icu_77::UObject" }
%"union.icu_77::UnicodeString::StackBufferOrFields" = type { %struct.anon.0, [32 x i8] }
%struct.anon.0 = type { i16, i32, i32, ptr }

; Function Attrs: inlinehint mustprogress nounwind uwtable
define linkonce_odr noundef i32 @_ZNK6icu_7713UnicodeString14getShortLengthEv(ptr noundef nonnull align 8 dereferenceable(64) %0) #1 comdat align 2 {
  %2 = alloca ptr, align 8
  store ptr %0, ptr %2, align 8, !tbaa !33
  %3 = load ptr, ptr %2, align 8
  %4 = getelementptr inbounds nuw %"class.icu_77::UnicodeString", ptr %3, i32 0, i32 1
  %5 = getelementptr inbounds nuw %struct.anon.0, ptr %4, i32 0, i32 0
  %6 = load i16, ptr %5, align 8, !tbaa !35
  %7 = sext i16 %6 to i32
  %8 = ashr i32 %7, 5
  ret i32 %8
}

; Function Attrs: inlinehint mustprogress nounwind uwtable
define linkonce_odr noundef signext i8 @_ZNK6icu_7713UnicodeString14hasShortLengthEv(ptr noundef nonnull align 8 dereferenceable(64) %0) #1 comdat align 2 {
  %2 = alloca ptr, align 8
  store ptr %0, ptr %2, align 8, !tbaa !33
  %3 = load ptr, ptr %2, align 8
  %4 = getelementptr inbounds nuw %"class.icu_77::UnicodeString", ptr %3, i32 0, i32 1
  %5 = getelementptr inbounds nuw %struct.anon.0, ptr %4, i32 0, i32 0
  %6 = load i16, ptr %5, align 8, !tbaa !35
  %7 = sext i16 %6 to i32
  %8 = icmp sge i32 %7, 0
  %9 = zext i1 %8 to i8
  ret i8 %9
}

; Function Attrs: inlinehint mustprogress uwtable
define linkonce_odr noundef i32 @_ZNK6icu_7713UnicodeString6lengthEv(ptr noundef nonnull align 8 dereferenceable(64) %0) #2 comdat align 2 {
  %2 = alloca ptr, align 8
  store ptr %0, ptr %2, align 8, !tbaa !33
  %3 = load ptr, ptr %2, align 8
  %4 = call noundef signext i8 @_ZNK6icu_7713UnicodeString14hasShortLengthEv(ptr noundef nonnull align 8 dereferenceable(64) %3)
  %5 = icmp ne i8 %4, 0
  br i1 %5, label %6, label %8

6:                                                ; preds = %1
  %7 = call noundef i32 @_ZNK6icu_7713UnicodeString14getShortLengthEv(ptr noundef nonnull align 8 dereferenceable(64) %3)
  br label %12

8:                                                ; preds = %1
  %9 = getelementptr inbounds nuw %"class.icu_77::UnicodeString", ptr %3, i32 0, i32 1
  %10 = getelementptr inbounds nuw %struct.anon.0, ptr %9, i32 0, i32 1
  %11 = load i32, ptr %10, align 4, !tbaa !35
  br label %12

12:                                               ; preds = %8, %6
  %13 = phi i32 [ %7, %6 ], [ %11, %8 ]
  ret i32 %13
}

; Function Attrs: inlinehint mustprogress uwtable
define linkonce_odr void @_ZNK6icu_7713UnicodeString8pinIndexERi(ptr noundef nonnull align 8 dereferenceable(64) %0, ptr noundef nonnull align 4 dereferenceable(4) %1) #2 comdat align 2 {
  %3 = alloca ptr, align 8
  %4 = alloca ptr, align 8
  store ptr %0, ptr %3, align 8, !tbaa !33
  store ptr %1, ptr %4, align 8, !tbaa !107
  %5 = load ptr, ptr %3, align 8
  %6 = load ptr, ptr %4, align 8, !tbaa !107
  %7 = load i32, ptr %6, align 4, !tbaa !48
  %8 = icmp slt i32 %7, 0
  br i1 %8, label %9, label %11

9:                                                ; preds = %2
  %10 = load ptr, ptr %4, align 8, !tbaa !107
  store i32 0, ptr %10, align 4, !tbaa !48
  br label %20

11:                                               ; preds = %2
  %12 = load ptr, ptr %4, align 8, !tbaa !107
  %13 = load i32, ptr %12, align 4, !tbaa !48
  %14 = call noundef i32 @_ZNK6icu_7713UnicodeString6lengthEv(ptr noundef nonnull align 8 dereferenceable(64) %5)
  %15 = icmp sgt i32 %13, %14
  br i1 %15, label %16, label %19

16:                                               ; preds = %11
  %17 = call noundef i32 @_ZNK6icu_7713UnicodeString6lengthEv(ptr noundef nonnull align 8 dereferenceable(64) %5)
  %18 = load ptr, ptr %4, align 8, !tbaa !107
  store i32 %17, ptr %18, align 4, !tbaa !48
  br label %19

19:                                               ; preds = %16, %11
  br label %20

20:                                               ; preds = %19, %9
  ret void
}

; Function Attrs: inlinehint mustprogress uwtable
define linkonce_odr noundef nonnull align 8 dereferenceable(64) ptr @_ZN6icu_7713UnicodeString6appendEDs(ptr noundef nonnull align 8 dereferenceable(64) %0, i16 noundef zeroext %1) #2 comdat align 2 {
  %3 = alloca ptr, align 8
  %4 = alloca i16, align 2
  store ptr %0, ptr %3, align 8, !tbaa !33
  store i16 %1, ptr %4, align 2, !tbaa !59
  %5 = load ptr, ptr %3, align 8
  %6 = call noundef nonnull align 8 dereferenceable(64) ptr @_ZN6icu_7713UnicodeString8doAppendEPKDsii(ptr noundef nonnull align 8 dereferenceable(64) %5, ptr noundef %4, i32 noundef 0, i32 noundef 1)
  ret ptr %6
}

; Function Attrs: inlinehint mustprogress uwtable
define linkonce_odr noundef nonnull align 8 dereferenceable(64) ptr @_ZN6icu_7713UnicodeString6appendERKS0_ii(ptr noundef nonnull align 8 dereferenceable(64) %0, ptr noundef nonnull align 8 dereferenceable(64) %1, i32 noundef %2, i32 noundef %3) #2 comdat align 2 {
  %5 = alloca ptr, align 8
  %6 = alloca ptr, align 8
  %7 = alloca i32, align 4
  %8 = alloca i32, align 4
  store ptr %0, ptr %5, align 8, !tbaa !33
  store ptr %1, ptr %6, align 8, !tbaa !33
  store i32 %2, ptr %7, align 4, !tbaa !48
  store i32 %3, ptr %8, align 4, !tbaa !48
  %9 = load ptr, ptr %5, align 8
  %10 = load ptr, ptr %6, align 8, !tbaa !33
  %11 = load i32, ptr %7, align 4, !tbaa !48
  %12 = load i32, ptr %8, align 4, !tbaa !48
  %13 = call noundef nonnull align 8 dereferenceable(64) ptr @_ZN6icu_7713UnicodeString8doAppendERKS0_ii(ptr noundef nonnull align 8 dereferenceable(64) %9, ptr noundef nonnull align 8 dereferenceable(64) %10, i32 noundef %11, i32 noundef %12)
  ret ptr %13
}

; Function Attrs: inlinehint mustprogress uwtable
define linkonce_odr noundef i32 @_ZNK6icu_7713UnicodeString7indexOfEDsi(ptr noundef nonnull align 8 dereferenceable(64) %0, i16 noundef zeroext %1, i32 noundef %2) #2 comdat align 2 {
  %4 = alloca ptr, align 8
  %5 = alloca i16, align 2
  %6 = alloca i32, align 4
  store ptr %0, ptr %4, align 8, !tbaa !33
  store i16 %1, ptr %5, align 2, !tbaa !59
  store i32 %2, ptr %6, align 4, !tbaa !48
  %7 = load ptr, ptr %4, align 8
  call void @_ZNK6icu_7713UnicodeString8pinIndexERi(ptr noundef nonnull align 8 dereferenceable(64) %7, ptr noundef nonnull align 4 dereferenceable(4) %6)
  %8 = load i16, ptr %5, align 2, !tbaa !59
  %9 = load i32, ptr %6, align 4, !tbaa !48
  %10 = call noundef i32 @_ZNK6icu_7713UnicodeString6lengthEv(ptr noundef nonnull align 8 dereferenceable(64) %7)
  %11 = load i32, ptr %6, align 4, !tbaa !48
  %12 = sub nsw i32 %10, %11
  %13 = call noundef i32 @_ZNK6icu_7713UnicodeString9doIndexOfEDsii(ptr noundef nonnull align 8 dereferenceable(64) %7, i16 noundef zeroext %8, i32 noundef %9, i32 noundef %12)
  ret i32 %13
}

; Function Attrs: mustprogress uwtable
define void @_ZN6icu_7711MessageImpl24appendReducedApostrophesERKNS_13UnicodeStringEiiRS1_(ptr noundef nonnull align 8 dereferenceable(64) %0, i32 noundef %1, i32 noundef %2, ptr noundef nonnull align 8 dereferenceable(64) %3) #0 align 2 {
  %5 = alloca ptr, align 8
  %6 = alloca i32, align 4
  %7 = alloca i32, align 4
  %8 = alloca ptr, align 8
  %9 = alloca i32, align 4
  %10 = alloca i32, align 4
  %11 = alloca i32, align 4
  store ptr %0, ptr %5, align 8, !tbaa !33
  store i32 %1, ptr %6, align 4, !tbaa !48
  store i32 %2, ptr %7, align 4, !tbaa !48
  store ptr %3, ptr %8, align 8, !tbaa !33
  call void @llvm.lifetime.start.p0(i64 4, ptr %9) #12
  store i32 -1, ptr %9, align 4, !tbaa !48
  br label %12

12:                                               ; preds = %52, %4
  call void @llvm.lifetime.start.p0(i64 4, ptr %10) #12
  %13 = load ptr, ptr %5, align 8, !tbaa !33
  %14 = load i32, ptr %6, align 4, !tbaa !48
  %15 = call noundef i32 @_ZNK6icu_7713UnicodeString7indexOfEDsi(ptr noundef nonnull align 8 dereferenceable(64) %13, i16 noundef zeroext 39, i32 noundef %14)
  store i32 %15, ptr %10, align 4, !tbaa !48
  %16 = load i32, ptr %10, align 4, !tbaa !48
  %17 = icmp slt i32 %16, 0
  br i1 %17, label %22, label %18

18:                                               ; preds = %12
  %19 = load i32, ptr %10, align 4, !tbaa !48
  %20 = load i32, ptr %7, align 4, !tbaa !48
  %21 = icmp sge i32 %19, %20
  br i1 %21, label %22, label %30

22:                                               ; preds = %18, %12
  %23 = load ptr, ptr %8, align 8, !tbaa !33
  %24 = load ptr, ptr %5, align 8, !tbaa !33
  %25 = load i32, ptr %6, align 4, !tbaa !48
  %26 = load i32, ptr %7, align 4, !tbaa !48
  %27 = load i32, ptr %6, align 4, !tbaa !48
  %28 = sub nsw i32 %26, %27
  %29 = call noundef nonnull align 8 dereferenceable(64) ptr @_ZN6icu_7713UnicodeString6appendERKS0_ii(ptr noundef nonnull align 8 dereferenceable(64) %23, ptr noundef nonnull align 8 dereferenceable(64) %24, i32 noundef %25, i32 noundef %28)
  store i32 2, ptr %11, align 4
  br label %50

30:                                               ; preds = %18
  %31 = load i32, ptr %10, align 4, !tbaa !48
  %32 = load i32, ptr %9, align 4, !tbaa !48
  %33 = icmp eq i32 %31, %32
  br i1 %33, label %34, label %39

34:                                               ; preds = %30
  %35 = load ptr, ptr %8, align 8, !tbaa !33
  %36 = call noundef nonnull align 8 dereferenceable(64) ptr @_ZN6icu_7713UnicodeString6appendEDs(ptr noundef nonnull align 8 dereferenceable(64) %35, i16 noundef zeroext 39)
  %37 = load i32, ptr %6, align 4, !tbaa !48
  %38 = add nsw i32 %37, 1
  store i32 %38, ptr %6, align 4, !tbaa !48
  store i32 -1, ptr %9, align 4, !tbaa !48
  br label %49

39:                                               ; preds = %30
  %40 = load ptr, ptr %8, align 8, !tbaa !33
  %41 = load ptr, ptr %5, align 8, !tbaa !33
  %42 = load i32, ptr %6, align 4, !tbaa !48
  %43 = load i32, ptr %10, align 4, !tbaa !48
  %44 = load i32, ptr %6, align 4, !tbaa !48
  %45 = sub nsw i32 %43, %44
  %46 = call noundef nonnull align 8 dereferenceable(64) ptr @_ZN6icu_7713UnicodeString6appendERKS0_ii(ptr noundef nonnull align 8 dereferenceable(64) %40, ptr noundef nonnull align 8 dereferenceable(64) %41, i32 noundef %42, i32 noundef %45)
  %47 = load i32, ptr %10, align 4, !tbaa !48
  %48 = add nsw i32 %47, 1
  store i32 %48, ptr %6, align 4, !tbaa !48
  store i32 %48, ptr %9, align 4, !tbaa !48
  br label %49

49:                                               ; preds = %39, %34
  store i32 0, ptr %11, align 4
  br label %50

50:                                               ; preds = %49, %22
  call void @llvm.lifetime.end.p0(i64 4, ptr %10) #12
  %51 = load i32, ptr %11, align 4
  switch i32 %51, label %54 [
    i32 0, label %52
    i32 2, label %53
  ]

52:                                               ; preds = %50
  br label %12, !llvm.loop !99

53:                                               ; preds = %50
  call void @llvm.lifetime.end.p0(i64 4, ptr %9) #12
  ret void

54:                                               ; preds = %50
  unreachable
}