; Function Attrs: mustprogress uwtable
define void @_ZN6icu_7711MessageImpl24appendReducedApostrophesERKNS_13UnicodeStringEiiRS1_(ptr noundef nonnull align 8 dereferenceable(64) %0, i32 noundef %1, i32 noundef %2, ptr noundef nonnull align 8 dereferenceable(64) %3) local_unnamed_addr #2 align 2 {
  %5 = alloca i16, align 2
  %.phi.trans.insert.i = getelementptr inbounds nuw i8, ptr %0, i64 8
  %6 = getelementptr inbounds nuw i8, ptr %0, i64 12
  br label %7

7:                                                ; preds = %.backedge, %4
  %.021 = phi i32 [ -1, %4 ], [ %.021.be, %.backedge ]
  %.020 = phi i32 [ %1, %4 ], [ %.020.be, %.backedge ]
  %8 = icmp slt i32 %.020, 0
  %.pre.i = load i16, ptr %.phi.trans.insert.i, align 8, !tbaa !19
  %.pre5.i = ashr i16 %.pre.i, 5
  %.pre6.i = sext i16 %.pre5.i to i32
  br i1 %8, label %._ZNK6icu_7713UnicodeString8pinIndexERi.exit_crit_edge.i, label %9

._ZNK6icu_7713UnicodeString8pinIndexERi.exit_crit_edge.i: ; preds = %7
  %.pre4.i = load i32, ptr %6, align 4
  br label %_ZNK6icu_7713UnicodeString7indexOfEDsi.exit

9:                                                ; preds = %7
  %10 = icmp slt i16 %.pre.i, 0
  %11 = load i32, ptr %6, align 4
  %12 = select i1 %10, i32 %11, i32 %.pre6.i
  %spec.select.i = call i32 @llvm.smin.i32(i32 %.020, i32 %12)
  br label %_ZNK6icu_7713UnicodeString7indexOfEDsi.exit

_ZNK6icu_7713UnicodeString7indexOfEDsi.exit:      ; preds = %._ZNK6icu_7713UnicodeString8pinIndexERi.exit_crit_edge.i, %9
  %13 = phi i32 [ %.pre4.i, %._ZNK6icu_7713UnicodeString8pinIndexERi.exit_crit_edge.i ], [ %11, %9 ]
  %.0.i = phi i32 [ 0, %._ZNK6icu_7713UnicodeString8pinIndexERi.exit_crit_edge.i ], [ %spec.select.i, %9 ]
  %14 = icmp slt i16 %.pre.i, 0
  %15 = select i1 %14, i32 %13, i32 %.pre6.i
  %16 = sub nsw i32 %15, %.0.i
  %17 = call noundef i32 @_ZNK6icu_7713UnicodeString9doIndexOfEDsii(ptr noundef nonnull align 8 dereferenceable(64) %0, i16 noundef zeroext 39, i32 noundef %.0.i, i32 noundef %16)
  %18 = icmp sgt i32 %17, -1
  %.not = icmp slt i32 %17, %2
  %or.cond = and i1 %18, %.not
  br i1 %or.cond, label %19, label %28

19:                                               ; preds = %_ZNK6icu_7713UnicodeString7indexOfEDsi.exit
  %20 = icmp eq i32 %17, %.021
  br i1 %20, label %21, label %24

21:                                               ; preds = %19
  call void @llvm.lifetime.start.p0(i64 2, ptr nonnull %5)
  store i16 39, ptr %5, align 2, !tbaa !30
  %22 = call noundef nonnull align 8 dereferenceable(64) ptr @_ZN6icu_7713UnicodeString8doAppendEPKDsii(ptr noundef nonnull align 8 dereferenceable(64) %3, ptr noundef nonnull %5, i32 noundef 0, i32 noundef 1)
  call void @llvm.lifetime.end.p0(i64 2, ptr nonnull %5)
  %23 = add nsw i32 %.020, 1
  br label %.backedge

.backedge:                                        ; preds = %21, %24
  %.021.be = phi i32 [ -1, %21 ], [ %27, %24 ]
  %.020.be = phi i32 [ %23, %21 ], [ %27, %24 ]
  br label %7

24:                                               ; preds = %19
  %25 = sub nsw i32 %17, %.020
  %26 = call noundef nonnull align 8 dereferenceable(64) ptr @_ZN6icu_7713UnicodeString8doAppendERKS0_ii(ptr noundef nonnull align 8 dereferenceable(64) %3, ptr noundef nonnull align 8 dereferenceable(64) %0, i32 noundef %.020, i32 noundef %25)
  %27 = add nuw nsw i32 %17, 1
  br label %.backedge

28:                                               ; preds = %_ZNK6icu_7713UnicodeString7indexOfEDsi.exit
  %29 = sub nsw i32 %2, %.020
  %30 = call noundef nonnull align 8 dereferenceable(64) ptr @_ZN6icu_7713UnicodeString8doAppendERKS0_ii(ptr noundef nonnull align 8 dereferenceable(64) %3, ptr noundef nonnull align 8 dereferenceable(64) %0, i32 noundef %.020, i32 noundef %29)
  ret void
}